; ModuleID = 'source-C-CXX/24/494.cpp'
source_filename = "source-C-CXX/24/494.cpp"
target datalayout = "e-m:e-p270:32:32-p271:32:32-p272:64:64-i64:64-f80:128-n8:16:32:64-S128"
target triple = "x86_64-pc-linux-gnu"

%"class.std::ios_base::Init" = type { i8 }
%"class.std::basic_istream" = type { i32 (...)**, i64, %"class.std::basic_ios" }
%"class.std::basic_ios" = type { %"class.std::ios_base", %"class.std::basic_ostream"*, i8, i8, %"class.std::basic_streambuf"*, %"class.std::ctype"*, %"class.std::num_put"*, %"class.std::num_get"* }
%"class.std::ios_base" = type { i32 (...)**, i64, i64, i32, i32, i32, %"struct.std::ios_base::_Callback_list"*, %"struct.std::ios_base::_Words", [8 x %"struct.std::ios_base::_Words"], i32, %"struct.std::ios_base::_Words"*, %"class.std::locale" }
%"struct.std::ios_base::_Callback_list" = type { %"struct.std::ios_base::_Callback_list"*, void (i32, %"class.std::ios_base"*, i32)*, i32, i32 }
%"struct.std::ios_base::_Words" = type { i8*, i64 }
%"class.std::locale" = type { %"class.std::locale::_Impl"* }
%"class.std::locale::_Impl" = type { i32, %"class.std::locale::facet"**, i64, %"class.std::locale::facet"**, i8** }
%"class.std::locale::facet" = type <{ i32 (...)**, i32, [4 x i8] }>
%"class.std::basic_ostream" = type { i32 (...)**, %"class.std::basic_ios" }
%"class.std::basic_streambuf" = type { i32 (...)**, i8*, i8*, i8*, i8*, i8*, i8*, %"class.std::locale" }
%"class.std::ctype" = type <{ %"class.std::locale::facet.base", [4 x i8], %struct.__locale_struct*, i8, [7 x i8], i32*, i32*, i16*, i8, [256 x i8], [256 x i8], i8, [6 x i8] }>
%"class.std::locale::facet.base" = type <{ i32 (...)**, i32 }>
%struct.__locale_struct = type { [13 x %struct.__locale_data*], i16*, i32*, i32*, [13 x i8*] }
%struct.__locale_data = type opaque
%"class.std::num_put" = type { %"class.std::locale::facet.base", [4 x i8] }
%"class.std::num_get" = type { %"class.std::locale::facet.base", [4 x i8] }

@_ZStL8__ioinit = internal global %"class.std::ios_base::Init" zeroinitializer, align 1
@__dso_handle = external hidden global i8
@_ZSt3cin = external global %"class.std::basic_istream", align 8
@_ZSt4cout = external global %"class.std::basic_ostream", align 8
@llvm.global_ctors = appending global [1 x { i32, void ()*, i8* }] [{ i32, void ()*, i8* } { i32 65535, void ()* @_GLOBAL__sub_I_494.cpp, i8* null }]

declare void @_ZNSt8ios_base4InitC1Ev(%"class.std::ios_base::Init"* nonnull align 1 dereferenceable(1)) unnamed_addr #0

; Function Attrs: nounwind
declare void @_ZNSt8ios_base4InitD1Ev(%"class.std::ios_base::Init"* nonnull align 1 dereferenceable(1)) unnamed_addr #1

; Function Attrs: nofree nounwind
declare i32 @__cxa_atexit(void (i8*)*, i8*, i8*) local_unnamed_addr #2

; Function Attrs: mustprogress norecurse sspstrong uwtable
define dso_local i32 @main() local_unnamed_addr #3 {
  %1 = alloca [1000 x i32], align 16
  %2 = alloca i32, align 4
  %3 = bitcast [1000 x i32]* %1 to i8*
  call void @llvm.lifetime.start.p0i8(i64 4000, i8* nonnull %3) #7
  call void @llvm.memset.p0i8.i64(i8* noundef nonnull align 16 dereferenceable(4000) %3, i8 0, i64 4000, i1 false)
  %4 = bitcast i32* %2 to i8*
  call void @llvm.lifetime.start.p0i8(i64 4, i8* nonnull %4) #7
  %5 = call nonnull align 8 dereferenceable(16) %"class.std::basic_istream"* @_ZNSirsERi(%"class.std::basic_istream"* nonnull align 8 dereferenceable(16) @_ZSt3cin, i32* nonnull align 4 dereferenceable(4) %2)
  %6 = getelementptr inbounds [1000 x i32], [1000 x i32]* %1, i64 0, i64 0
  store i32 1, i32* %6, align 16, !tbaa !5
  %7 = load i32, i32* %2, align 4, !tbaa !5
  %8 = icmp eq i32 %7, 0
  br i1 %8, label %11, label %9

9:                                                ; preds = %0
  %10 = icmp sgt i32 %7, 0
  br i1 %10, label %13, label %62

11:                                               ; preds = %0
  %12 = call nonnull align 8 dereferenceable(8) %"class.std::basic_ostream"* @_ZNSolsEi(%"class.std::basic_ostream"* nonnull align 8 dereferenceable(8) @_ZSt4cout, i32 1)
  br label %81

13:                                               ; preds = %9, %59
  %14 = phi i32 [ %60, %59 ], [ 0, %9 ]
  br label %15

15:                                               ; preds = %13, %40
  %16 = phi i64 [ 0, %13 ], [ %20, %40 ]
  %17 = getelementptr inbounds [1000 x i32], [1000 x i32]* %1, i64 0, i64 %16
  %18 = load i32, i32* %17, align 4, !tbaa !5
  %19 = icmp eq i32 %18, 0
  %20 = add nuw i64 %16, 1
  br i1 %19, label %21, label %40

21:                                               ; preds = %15
  %22 = getelementptr inbounds [1000 x i32], [1000 x i32]* %1, i64 0, i64 %20
  %23 = load i32, i32* %22, align 4, !tbaa !5
  %24 = icmp eq i32 %23, 0
  br i1 %24, label %25, label %40

25:                                               ; preds = %21
  %26 = add nuw nsw i64 %16, 2
  %27 = getelementptr inbounds [1000 x i32], [1000 x i32]* %1, i64 0, i64 %26
  %28 = load i32, i32* %27, align 4, !tbaa !5
  %29 = icmp eq i32 %28, 0
  br i1 %29, label %30, label %40

30:                                               ; preds = %25
  %31 = add nuw nsw i64 %16, 3
  %32 = getelementptr inbounds [1000 x i32], [1000 x i32]* %1, i64 0, i64 %31
  %33 = load i32, i32* %32, align 4, !tbaa !5
  %34 = icmp eq i32 %33, 0
  br i1 %34, label %35, label %40

35:                                               ; preds = %30
  %36 = trunc i64 %16 to i32
  %37 = icmp eq i32 %36, 0
  br i1 %37, label %59, label %38

38:                                               ; preds = %35
  %39 = and i64 %16, 4294967295
  br label %42

40:                                               ; preds = %15, %21, %25, %30
  %41 = shl nsw i32 %18, 1
  store i32 %41, i32* %17, align 4, !tbaa !5
  br label %15, !llvm.loop !9

42:                                               ; preds = %38, %56
  %43 = phi i64 [ 0, %38 ], [ %57, %56 ]
  %44 = getelementptr inbounds [1000 x i32], [1000 x i32]* %1, i64 0, i64 %43
  %45 = load i32, i32* %44, align 4, !tbaa !5
  %46 = icmp sgt i32 %45, 9
  br i1 %46, label %49, label %47

47:                                               ; preds = %42
  %48 = add nuw nsw i64 %43, 1
  br label %56

49:                                               ; preds = %42
  %50 = udiv i32 %45, 10
  %51 = add nuw nsw i64 %43, 1
  %52 = getelementptr inbounds [1000 x i32], [1000 x i32]* %1, i64 0, i64 %51
  %53 = load i32, i32* %52, align 4, !tbaa !5
  %54 = add nsw i32 %53, %50
  store i32 %54, i32* %52, align 4, !tbaa !5
  %55 = urem i32 %45, 10
  store i32 %55, i32* %44, align 4, !tbaa !5
  br label %56

56:                                               ; preds = %47, %49
  %57 = phi i64 [ %48, %47 ], [ %51, %49 ]
  %58 = icmp eq i64 %57, %39
  br i1 %58, label %59, label %42, !llvm.loop !11

59:                                               ; preds = %56, %35
  %60 = add nuw nsw i32 %14, 1
  %61 = icmp eq i32 %60, %7
  br i1 %61, label %62, label %13, !llvm.loop !12

62:                                               ; preds = %59, %9
  br label %63

63:                                               ; preds = %62, %63
  %64 = phi i64 [ %68, %63 ], [ 40, %62 ]
  %65 = getelementptr inbounds [1000 x i32], [1000 x i32]* %1, i64 0, i64 %64
  %66 = load i32, i32* %65, align 4, !tbaa !5
  %67 = icmp eq i32 %66, 0
  %68 = add i64 %64, -1
  br i1 %67, label %63, label %69, !llvm.loop !13

69:                                               ; preds = %63
  %70 = trunc i64 %64 to i32
  %71 = icmp sgt i32 %70, -1
  br i1 %71, label %72, label %81

72:                                               ; preds = %69
  %73 = and i64 %64, 4294967295
  br label %74

74:                                               ; preds = %72, %74
  %75 = phi i64 [ %73, %72 ], [ %80, %74 ]
  %76 = getelementptr inbounds [1000 x i32], [1000 x i32]* %1, i64 0, i64 %75
  %77 = load i32, i32* %76, align 4, !tbaa !5
  %78 = call nonnull align 8 dereferenceable(8) %"class.std::basic_ostream"* @_ZNSolsEi(%"class.std::basic_ostream"* nonnull align 8 dereferenceable(8) @_ZSt4cout, i32 %77)
  %79 = icmp sgt i64 %75, 0
  %80 = add nsw i64 %75, -1
  br i1 %79, label %74, label %81, !llvm.loop !14

81:                                               ; preds = %74, %69, %11
  call void @llvm.lifetime.end.p0i8(i64 4, i8* nonnull %4) #7
  call void @llvm.lifetime.end.p0i8(i64 4000, i8* nonnull %3) #7
  ret i32 0
}

; Function Attrs: argmemonly mustprogress nofree nosync nounwind willreturn
declare void @llvm.lifetime.start.p0i8(i64 immarg, i8* nocapture) #4

; Function Attrs: argmemonly mustprogress nofree nounwind willreturn writeonly
declare void @llvm.memset.p0i8.i64(i8* nocapture writeonly, i8, i64, i1 immarg) #5

declare nonnull align 8 dereferenceable(16) %"class.std::basic_istream"* @_ZNSirsERi(%"class.std::basic_istream"* nonnull align 8 dereferenceable(16), i32* nonnull align 4 dereferenceable(4)) local_unnamed_addr #0

declare nonnull align 8 dereferenceable(8) %"class.std::basic_ostream"* @_ZNSolsEi(%"class.std::basic_ostream"* nonnull align 8 dereferenceable(8), i32) local_unnamed_addr #0

; Function Attrs: argmemonly mustprogress nofree nosync nounwind willreturn
declare void @llvm.lifetime.end.p0i8(i64 immarg, i8* nocapture) #4

; Function Attrs: sspstrong uwtable
define internal void @_GLOBAL__sub_I_494.cpp() #6 section ".text.startup" {
  tail call void @_ZNSt8ios_base4InitC1Ev(%"class.std::ios_base::Init"* nonnull align 1 dereferenceable(1) @_ZStL8__ioinit)
  %1 = tail call i32 @__cxa_atexit(void (i8*)* bitcast (void (%"class.std::ios_base::Init"*)* @_ZNSt8ios_base4InitD1Ev to void (i8*)*), i8* getelementptr inbounds (%"class.std::ios_base::Init", %"class.std::ios_base::Init"* @_ZStL8__ioinit, i64 0, i32 0), i8* nonnull @__dso_handle) #7
  ret void
}


!llvm.module.flags = !{!0, !1, !2, !3}
!llvm.ident = !{!4}

!0 = !{i32 1, !"wchar_size", i32 4}
!1 = !{i32 7, !"PIC Level", i32 2}
!2 = !{i32 7, !"PIE Level", i32 2}
!3 = !{i32 7, !"uwtable", i32 1}
!4 = !{!"clang version 13.0.0"}
!5 = !{!6, !6, i64 0}
!6 = !{!"int", !7, i64 0}
!7 = !{!"omnipotent char", !8, i64 0}
!8 = !{!"Simple C++ TBAA"}
!9 = distinct !{!9, !10}
!10 = !{!"llvm.loop.mustprogress"}
!11 = distinct !{!11, !10}
!12 = distinct !{!12, !10}
!13 = distinct !{!13, !10}
!14 = distinct !{!14, !10}
